   1               		.file	"main.c"
   2               	__SP_H__ = 0x3e
   3               	__SP_L__ = 0x3d
   4               	__SREG__ = 0x3f
   5               	__tmp_reg__ = 0
   6               	__zero_reg__ = 1
   7               		.text
   8               	.Ltext0:
   9               		.cfi_sections	.debug_frame
  10               		.section	.rodata.str1.1,"aMS",@progbits,1
  11               	.LC0:
  12 0000 4865 6C6C 		.string	"Hello world!"
  12      6F20 776F 
  12      726C 6421 
  12      00
  13               	.LC1:
  14 000d 2573 00   		.string	"%s"
  15               	.LC2:
  16 0010 596F 7520 		.string	"You wrote %s\n"
  16      7772 6F74 
  16      6520 2573 
  16      0A00 
  17               		.section	.text.startup,"ax",@progbits
  18               	.global	main
  20               	main:
  21               	.LFB1:
  22               		.file 1 "main.c"
   1:main.c        **** //
   2:main.c        **** // Created by Shidfar Hodizoda on 14/04/2018.
   3:main.c        **** //
   4:main.c        **** 
   5:main.c        **** #include <stdio.h>
   6:main.c        **** #include "uart.h"
   7:main.c        **** 
   8:main.c        **** int main(void) {
  23               		.loc 1 8 0
  24               		.cfi_startproc
  25 0000 CF93      		push r28
  26               	.LCFI0:
  27               		.cfi_def_cfa_offset 3
  28               		.cfi_offset 28, -2
  29 0002 DF93      		push r29
  30               	.LCFI1:
  31               		.cfi_def_cfa_offset 4
  32               		.cfi_offset 29, -3
  33 0004 CDB7      		in r28,__SP_L__
  34 0006 DEB7      		in r29,__SP_H__
  35               	.LCFI2:
  36               		.cfi_def_cfa_register 28
  37 0008 C456      		subi r28,100
  38 000a D109      		sbc r29,__zero_reg__
  39               	.LCFI3:
  40               		.cfi_def_cfa_offset 104
  41 000c 0FB6      		in __tmp_reg__,__SREG__
  42 000e F894      		cli
  43 0010 DEBF      		out __SP_H__,r29
  44 0012 0FBE      		out __SREG__,__tmp_reg__
  45 0014 CDBF      		out __SP_L__,r28
  46               	/* prologue: function */
  47               	/* frame size = 100 */
  48               	/* stack size = 102 */
  49               	.L__stack_usage = 102
   9:main.c        **** 
  10:main.c        ****     initialize_uart();
  50               		.loc 1 10 0
  51 0016 00D0      		rcall initialize_uart
  52               	.LVL0:
  11:main.c        ****     stdout = &uart_output;
  53               		.loc 1 11 0
  54 0018 80E0      		ldi r24,lo8(uart_output)
  55 001a 90E0      		ldi r25,hi8(uart_output)
  56 001c 9093 0000 		sts __iob+2+1,r25
  57 0020 8093 0000 		sts __iob+2,r24
  12:main.c        ****     stdin  = &uart_input;
  58               		.loc 1 12 0
  59 0024 80E0      		ldi r24,lo8(uart_input)
  60 0026 90E0      		ldi r25,hi8(uart_input)
  61 0028 9093 0000 		sts __iob+1,r25
  62 002c 8093 0000 		sts __iob,r24
  13:main.c        **** 
  14:main.c        ****     char input[100];
  15:main.c        **** 
  16:main.c        ****     while(1) {
  17:main.c        ****         printf("Hello world!");
  63               		.loc 1 17 0
  64 0030 80E0      		ldi r24,lo8(.LC0)
  65 0032 A82E      		mov r10,r24
  66 0034 80E0      		ldi r24,hi8(.LC0)
  67 0036 B82E      		mov r11,r24
  18:main.c        ****         scanf("%s", input);
  68               		.loc 1 18 0
  69 0038 9D2F      		mov r25,r29
  70 003a 8C2F      		mov r24,r28
  71 003c 0196      		adiw r24,1
  72 003e F92E      		mov r15,r25
  73 0040 E82E      		mov r14,r24
  74 0042 90E0      		ldi r25,lo8(.LC1)
  75 0044 C92E      		mov r12,r25
  76 0046 90E0      		ldi r25,hi8(.LC1)
  77 0048 D92E      		mov r13,r25
  19:main.c        ****         printf("You wrote %s\n", input);
  78               		.loc 1 19 0
  79 004a 00E0      		ldi r16,lo8(.LC2)
  80 004c 10E0      		ldi r17,hi8(.LC2)
  81               	.L2:
  17:main.c        ****         scanf("%s", input);
  82               		.loc 1 17 0 discriminator 1
  83 004e BF92      		push r11
  84 0050 AF92      		push r10
  85 0052 00D0      		rcall printf
  86               	.LVL1:
  18:main.c        ****         scanf("%s", input);
  87               		.loc 1 18 0 discriminator 1
  88 0054 FF92      		push r15
  89 0056 EF92      		push r14
  90 0058 DF92      		push r13
  91 005a CF92      		push r12
  92 005c 00D0      		rcall scanf
  93               	.LVL2:
  94               		.loc 1 19 0 discriminator 1
  95 005e FF92      		push r15
  96 0060 EF92      		push r14
  97 0062 1F93      		push r17
  98 0064 0F93      		push r16
  99 0066 00D0      		rcall printf
 100               	.LVL3:
 101 0068 0FB6      		in __tmp_reg__,__SREG__
 102 006a F894      		cli
 103 006c DEBF      		out __SP_H__,r29
 104 006e 0FBE      		out __SREG__,__tmp_reg__
 105 0070 CDBF      		out __SP_L__,r28
 106 0072 00C0      		rjmp .L2
 107               		.cfi_endproc
 108               	.LFE1:
 110               	.global	uart_input
 111               		.data
 114               	uart_input:
 115 0000 0000 00   		.zero	3
 116 0003 01        		.byte	1
 117 0004 0000 0000 		.zero	4
 118 0008 0000      		.word	0
 119 000a 0000      		.word	gs(uart_getchar)
 120 000c 0000      		.word	0
 121               	.global	uart_output
 124               	uart_output:
 125 000e 0000 00   		.zero	3
 126 0011 02        		.byte	2
 127 0012 0000 0000 		.zero	4
 128 0016 0000      		.word	gs(uart_putchar)
 129 0018 0000      		.word	0
 130 001a 0000      		.word	0
 131               		.text
 132               	.Letext0:
 133               		.file 2 "/usr/local/avr/avr/include/stdio.h"
 134               		.file 3 "/usr/local/avr/avr/include/stdint.h"
 135               		.file 4 "uart.h"